target datalayout = "e-m:e-p270:32:32-p271:32:32-p272:64:64-i64:64-i128:128-f80:128-n8:16:32:64-S128"
target triple = "x86_64-pc-linux-gnu"

%"struct.std::_Vector_base" = type { %"struct.std::_Vector_base<unsigned char, std::allocator<unsigned char>>::_Vector_impl" }
%"struct.std::_Vector_base<unsigned char, std::allocator<unsigned char>>::_Vector_impl" = type { %"struct.std::_Vector_base<unsigned char, std::allocator<unsigned char>>::_Vector_impl_data" }
%"struct.std::_Vector_base<unsigned char, std::allocator<unsigned char>>::_Vector_impl_data" = type { ptr, ptr, ptr }
%struct.jpeg_compress_struct = type { ptr, ptr, ptr, ptr, i32, i32, ptr, i32, i32, i32, i32, double, i32, i32, i32, i32, i32, i32, i32, ptr, [4 x ptr], [4 x i32], [4 x ptr], [4 x ptr], [16 x i8], [16 x i8], [16 x i8], i32, ptr, i32, i32, i32, i32, i32, i32, i32, i32, i32, i32, i8, i8, i8, i16, i16, i32, i32, i32, i32, i32, i32, i32, i32, i32, [4 x ptr], i32, i32, i32, [10 x i32], i32, i32, i32, i32, i32, ptr, i32, ptr, ptr, ptr, ptr, ptr, ptr, ptr, ptr, ptr, ptr, i32 }
%"struct.cv::JpegDestination" = type { %struct.jpeg_destination_mgr, ptr, ptr }
%struct.jpeg_destination_mgr = type { ptr, i64, ptr, ptr, ptr }

; Function Attrs: mustprogress nounwind uwtable
define linkonce_odr hidden noundef nonnull align 1 dereferenceable(1) ptr @_ZNSt6vectorIhSaIhEEixEm(ptr noundef nonnull align 8 dereferenceable(24) %0, i64 noundef %1) #5 comdat align 2 {
  %3 = alloca ptr, align 8
  %4 = alloca i64, align 8
  store ptr %0, ptr %3, align 8, !tbaa !227
  store i64 %1, ptr %4, align 8, !tbaa !138
  %5 = load ptr, ptr %3, align 8
  %6 = getelementptr inbounds nuw %"struct.std::_Vector_base", ptr %5, i32 0, i32 0
  %7 = getelementptr inbounds nuw %"struct.std::_Vector_base<unsigned char, std::allocator<unsigned char>>::_Vector_impl_data", ptr %6, i32 0, i32 0
  %8 = load ptr, ptr %7, align 8, !tbaa !236
  %9 = load i64, ptr %4, align 8, !tbaa !138
  %10 = getelementptr inbounds nuw i8, ptr %8, i64 %9
  ret ptr %10
}

; Function Attrs: mustprogress nounwind uwtable
define linkonce_odr hidden noundef i64 @_ZNKSt6vectorIhSaIhEE4sizeEv(ptr noundef nonnull align 8 dereferenceable(24) %0) #5 comdat align 2 {
  %2 = alloca ptr, align 8
  store ptr %0, ptr %2, align 8, !tbaa !227
  %3 = load ptr, ptr %2, align 8
  %4 = getelementptr inbounds nuw %"struct.std::_Vector_base", ptr %3, i32 0, i32 0
  %5 = getelementptr inbounds nuw %"struct.std::_Vector_base<unsigned char, std::allocator<unsigned char>>::_Vector_impl_data", ptr %4, i32 0, i32 1
  %6 = load ptr, ptr %5, align 8, !tbaa !237
  %7 = getelementptr inbounds nuw %"struct.std::_Vector_base", ptr %3, i32 0, i32 0
  %8 = getelementptr inbounds nuw %"struct.std::_Vector_base<unsigned char, std::allocator<unsigned char>>::_Vector_impl_data", ptr %7, i32 0, i32 0
  %9 = load ptr, ptr %8, align 8, !tbaa !236
  %10 = ptrtoint ptr %6 to i64
  %11 = ptrtoint ptr %9 to i64
  %12 = sub i64 %10, %11
  ret i64 %12
}

; Function Attrs: mustprogress uwtable
define internal void @_ZN2cvL16term_destinationEP20jpeg_compress_struct(ptr noundef %0) #4 {
  %2 = alloca ptr, align 8
  %3 = alloca ptr, align 8
  %4 = alloca i64, align 8
  %5 = alloca i64, align 8
  store ptr %0, ptr %2, align 8, !tbaa !228
  call void @llvm.lifetime.start.p0(i64 8, ptr %3) #3
  %6 = load ptr, ptr %2, align 8, !tbaa !228
  %7 = getelementptr inbounds nuw %struct.jpeg_compress_struct, ptr %6, i32 0, i32 6
  %8 = load ptr, ptr %7, align 8, !tbaa !232
  store ptr %8, ptr %3, align 8, !tbaa !230
  call void @llvm.lifetime.start.p0(i64 8, ptr %4) #3
  %9 = load ptr, ptr %3, align 8, !tbaa !230
  %10 = getelementptr inbounds nuw %"struct.cv::JpegDestination", ptr %9, i32 0, i32 2
  %11 = load ptr, ptr %10, align 8, !tbaa !196
  %12 = call noundef i64 @_ZNKSt6vectorIhSaIhEE4sizeEv(ptr noundef nonnull align 8 dereferenceable(24) %11) #3
  store i64 %12, ptr %4, align 8, !tbaa !138
  call void @llvm.lifetime.start.p0(i64 8, ptr %5) #3
  %13 = load ptr, ptr %3, align 8, !tbaa !230
  %14 = getelementptr inbounds nuw %"struct.cv::JpegDestination", ptr %13, i32 0, i32 1
  %15 = load ptr, ptr %14, align 8, !tbaa !199
  %16 = call noundef i64 @_ZNKSt6vectorIhSaIhEE4sizeEv(ptr noundef nonnull align 8 dereferenceable(24) %15) #3
  %17 = load ptr, ptr %3, align 8, !tbaa !230
  %18 = getelementptr inbounds nuw %"struct.cv::JpegDestination", ptr %17, i32 0, i32 0
  %19 = getelementptr inbounds nuw %struct.jpeg_destination_mgr, ptr %18, i32 0, i32 1
  %20 = load i64, ptr %19, align 8, !tbaa !201
  %21 = sub i64 %16, %20
  store i64 %21, ptr %5, align 8, !tbaa !138
  %22 = load i64, ptr %5, align 8, !tbaa !138
  %23 = icmp ugt i64 %22, 0
  br i1 %23, label %24, label %42

24:                                               ; preds = %1
  %25 = load ptr, ptr %3, align 8, !tbaa !230
  %26 = getelementptr inbounds nuw %"struct.cv::JpegDestination", ptr %25, i32 0, i32 2
  %27 = load ptr, ptr %26, align 8, !tbaa !196
  %28 = load i64, ptr %4, align 8, !tbaa !138
  %29 = load i64, ptr %5, align 8, !tbaa !138
  %30 = add i64 %28, %29
  call void @_ZNSt6vectorIhSaIhEE6resizeEm(ptr noundef nonnull align 8 dereferenceable(24) %27, i64 noundef %30)
  %31 = load ptr, ptr %3, align 8, !tbaa !230
  %32 = getelementptr inbounds nuw %"struct.cv::JpegDestination", ptr %31, i32 0, i32 2
  %33 = load ptr, ptr %32, align 8, !tbaa !196
  %34 = call noundef nonnull align 1 dereferenceable(1) ptr @_ZNSt6vectorIhSaIhEEixEm(ptr noundef nonnull align 8 dereferenceable(24) %33, i64 noundef 0) #3
  %35 = load i64, ptr %4, align 8, !tbaa !138
  %36 = getelementptr inbounds nuw i8, ptr %34, i64 %35
  %37 = load ptr, ptr %3, align 8, !tbaa !230
  %38 = getelementptr inbounds nuw %"struct.cv::JpegDestination", ptr %37, i32 0, i32 1
  %39 = load ptr, ptr %38, align 8, !tbaa !199
  %40 = call noundef nonnull align 1 dereferenceable(1) ptr @_ZNSt6vectorIhSaIhEEixEm(ptr noundef nonnull align 8 dereferenceable(24) %39, i64 noundef 0) #3
  %41 = load i64, ptr %5, align 8, !tbaa !138
  call void @llvm.memcpy.p0.p0.i64(ptr align 1 %36, ptr align 1 %40, i64 %41, i1 false)
  br label %42

42:                                               ; preds = %24, %1
  call void @llvm.lifetime.end.p0(i64 8, ptr %5) #3
  call void @llvm.lifetime.end.p0(i64 8, ptr %4) #3
  call void @llvm.lifetime.end.p0(i64 8, ptr %3) #3
  ret void
}