; Function Attrs: mustprogress uwtable
define internal void @_ZN2cvL16term_destinationEP20jpeg_compress_struct(ptr noundef readonly captures(none) %0) #3 {
  %2 = getelementptr inbounds nuw i8, ptr %0, i64 40
  %3 = load ptr, ptr %2, align 8, !tbaa !190
  %4 = getelementptr inbounds nuw i8, ptr %3, i64 40
  %5 = load ptr, ptr %4, align 8, !tbaa !189
  %6 = getelementptr inbounds nuw i8, ptr %5, i64 8
  %7 = load ptr, ptr %6, align 8, !tbaa !171
  %8 = load ptr, ptr %5, align 8, !tbaa !169
  %9 = ptrtoint ptr %7 to i64
  %10 = ptrtoint ptr %8 to i64
  %11 = sub i64 %9, %10
  %12 = getelementptr inbounds nuw i8, ptr %3, i64 8
  %13 = load i64, ptr %12, align 8, !tbaa !195
  %.not = icmp eq i64 %11, %13
  br i1 %.not, label %30, label %14

14:                                               ; preds = %1
  %15 = getelementptr inbounds nuw i8, ptr %3, i64 48
  %16 = load ptr, ptr %15, align 8, !tbaa !186
  %17 = getelementptr inbounds nuw i8, ptr %16, i64 8
  %18 = load ptr, ptr %17, align 8, !tbaa !171
  %19 = ptrtoint ptr %18 to i64
  %20 = load ptr, ptr %16, align 8, !tbaa !169
  %21 = ptrtoint ptr %20 to i64
  %22 = sub i64 %19, %21
  %23 = sub i64 %11, %13
  %24 = add i64 %22, %23
  tail call void @_ZNSt6vectorIhSaIhEE6resizeEm(ptr noundef nonnull align 8 dereferenceable(24) %16, i64 noundef %24)
  %25 = load ptr, ptr %15, align 8, !tbaa !186
  %26 = load ptr, ptr %25, align 8, !tbaa !169
  %27 = getelementptr inbounds nuw i8, ptr %26, i64 %22
  %28 = load ptr, ptr %4, align 8, !tbaa !189
  %29 = load ptr, ptr %28, align 8, !tbaa !169
  tail call void @llvm.memcpy.p0.p0.i64(ptr nonnull align 1 %27, ptr nonnull align 1 %29, i64 %23, i1 false)
  br label %30

30:                                               ; preds = %14, %1
  ret void
}